#include <math.h>
#include <stdio.h>
#include <stdlib.h>
#include <string.h>
#include <iostream>
using namespace std;


int main()
{
	char a[200];
	int len,i,j,k,num=0;

	cin.getline(a,200);
	len=strlen(a);
	for(k=0;k<len;k++){
	num=0;
	for(i=0;i<len;i++){
		if(a[i]==' '){
			if(a[i+1]==' '){
			num++;
			for(j=i;j<=len-num;j++)
				a[j]=a[j+1];
		}
		}
	}
	}
	len=strlen(a);
	for(i=0;i<len;i++)
		cout<<a[i];
	return 0;
}