; ModuleID = 'source-C-CXX/25/518.cpp'
source_filename = "source-C-CXX/25/518.cpp"
target datalayout = "e-m:e-p270:32:32-p271:32:32-p272:64:64-i64:64-f80:128-n8:16:32:64-S128"
target triple = "x86_64-pc-linux-gnu"

%"class.std::ios_base::Init" = type { i8 }
%"class.std::basic_istream" = type { i32 (...)**, i64, %"class.std::basic_ios" }
%"class.std::basic_ios" = type { %"class.std::ios_base", %"class.std::basic_ostream"*, i8, i8, %"class.std::basic_streambuf"*, %"class.std::ctype"*, %"class.std::num_put"*, %"class.std::num_get"* }
%"class.std::ios_base" = type { i32 (...)**, i64, i64, i32, i32, i32, %"struct.std::ios_base::_Callback_list"*, %"struct.std::ios_base::_Words", [8 x %"struct.std::ios_base::_Words"], i32, %"struct.std::ios_base::_Words"*, %"class.std::locale" }
%"struct.std::ios_base::_Callback_list" = type { %"struct.std::ios_base::_Callback_list"*, void (i32, %"class.std::ios_base"*, i32)*, i32, i32 }
%"struct.std::ios_base::_Words" = type { i8*, i64 }
%"class.std::locale" = type { %"class.std::locale::_Impl"* }
%"class.std::locale::_Impl" = type { i32, %"class.std::locale::facet"**, i64, %"class.std::locale::facet"**, i8** }
%"class.std::locale::facet" = type <{ i32 (...)**, i32, [4 x i8] }>
%"class.std::basic_ostream" = type { i32 (...)**, %"class.std::basic_ios" }
%"class.std::basic_streambuf" = type { i32 (...)**, i8*, i8*, i8*, i8*, i8*, i8*, %"class.std::locale" }
%"class.std::ctype" = type <{ %"class.std::locale::facet.base", [4 x i8], %struct.__locale_struct*, i8, [7 x i8], i32*, i32*, i16*, i8, [256 x i8], [256 x i8], i8, [6 x i8] }>
%"class.std::locale::facet.base" = type <{ i32 (...)**, i32 }>
%struct.__locale_struct = type { [13 x %struct.__locale_data*], i16*, i32*, i32*, [13 x i8*] }
%struct.__locale_data = type opaque
%"class.std::num_put" = type { %"class.std::locale::facet.base", [4 x i8] }
%"class.std::num_get" = type { %"class.std::locale::facet.base", [4 x i8] }

@_ZStL8__ioinit = internal global %"class.std::ios_base::Init" zeroinitializer, align 1
@__dso_handle = external hidden global i8
@_ZSt3cin = external global %"class.std::basic_istream", align 8
@_ZSt4cout = external global %"class.std::basic_ostream", align 8
@llvm.global_ctors = appending global [1 x { i32, void ()*, i8* }] [{ i32, void ()*, i8* } { i32 65535, void ()* @_GLOBAL__sub_I_518.cpp, i8* null }]

declare void @_ZNSt8ios_base4InitC1Ev(%"class.std::ios_base::Init"* nonnull align 1 dereferenceable(1)) unnamed_addr #0

; Function Attrs: nounwind
declare void @_ZNSt8ios_base4InitD1Ev(%"class.std::ios_base::Init"* nonnull align 1 dereferenceable(1)) unnamed_addr #1

; Function Attrs: nofree nounwind
declare i32 @__cxa_atexit(void (i8*)*, i8*, i8*) local_unnamed_addr #2

; Function Attrs: mustprogress norecurse sspstrong uwtable
define dso_local i32 @main() local_unnamed_addr #3 {
  %1 = alloca i8, align 1
  %2 = alloca [200 x i8], align 16
  %3 = getelementptr inbounds [200 x i8], [200 x i8]* %2, i64 0, i64 0
  call void @llvm.lifetime.start.p0i8(i64 200, i8* nonnull %3) #9
  %4 = load i8*, i8** bitcast (%"class.std::basic_istream"* @_ZSt3cin to i8**), align 8, !tbaa !5
  %5 = getelementptr i8, i8* %4, i64 -24
  %6 = bitcast i8* %5 to i64*
  %7 = load i64, i64* %6, align 8
  %8 = add nsw i64 %7, 240
  %9 = getelementptr inbounds i8, i8* bitcast (%"class.std::basic_istream"* @_ZSt3cin to i8*), i64 %8
  %10 = bitcast i8* %9 to %"class.std::ctype"**
  %11 = load %"class.std::ctype"*, %"class.std::ctype"** %10, align 8, !tbaa !8
  %12 = icmp eq %"class.std::ctype"* %11, null
  br i1 %12, label %13, label %14

13:                                               ; preds = %0
  tail call void @_ZSt16__throw_bad_castv() #10
  unreachable

14:                                               ; preds = %0
  %15 = getelementptr inbounds %"class.std::ctype", %"class.std::ctype"* %11, i64 0, i32 8
  %16 = load i8, i8* %15, align 8, !tbaa !13
  %17 = icmp eq i8 %16, 0
  br i1 %17, label %21, label %18

18:                                               ; preds = %14
  %19 = getelementptr inbounds %"class.std::ctype", %"class.std::ctype"* %11, i64 0, i32 9, i64 10
  %20 = load i8, i8* %19, align 1, !tbaa !15
  br label %27

21:                                               ; preds = %14
  tail call void @_ZNKSt5ctypeIcE13_M_widen_initEv(%"class.std::ctype"* nonnull align 8 dereferenceable(570) %11)
  %22 = bitcast %"class.std::ctype"* %11 to i8 (%"class.std::ctype"*, i8)***
  %23 = load i8 (%"class.std::ctype"*, i8)**, i8 (%"class.std::ctype"*, i8)*** %22, align 8, !tbaa !5
  %24 = getelementptr inbounds i8 (%"class.std::ctype"*, i8)*, i8 (%"class.std::ctype"*, i8)** %23, i64 6
  %25 = load i8 (%"class.std::ctype"*, i8)*, i8 (%"class.std::ctype"*, i8)** %24, align 8
  %26 = tail call signext i8 %25(%"class.std::ctype"* nonnull align 8 dereferenceable(570) %11, i8 signext 10)
  br label %27

27:                                               ; preds = %18, %21
  %28 = phi i8 [ %20, %18 ], [ %26, %21 ]
  %29 = call nonnull align 8 dereferenceable(16) %"class.std::basic_istream"* @_ZNSi7getlineEPclc(%"class.std::basic_istream"* nonnull align 8 dereferenceable(16) @_ZSt3cin, i8* nonnull %3, i64 200, i8 signext %28)
  %30 = call i64 @strlen(i8* noundef nonnull %3) #11
  %31 = trunc i64 %30 to i32
  %32 = icmp sgt i32 %31, 0
  br i1 %32, label %33, label %161

33:                                               ; preds = %27
  %34 = and i64 %30, 4294967295
  %35 = shl i64 %30, 32
  %36 = ashr exact i64 %35, 32
  br label %37

37:                                               ; preds = %33, %158
  %38 = phi i32 [ %159, %158 ], [ 0, %33 ]
  br label %39

39:                                               ; preds = %37, %155
  %40 = phi i64 [ 0, %37 ], [ %47, %155 ]
  %41 = phi i32 [ 0, %37 ], [ %156, %155 ]
  %42 = sub nsw i64 1, %40
  %43 = sub nsw i64 1, %40
  %44 = getelementptr inbounds [200 x i8], [200 x i8]* %2, i64 0, i64 %40
  %45 = load i8, i8* %44, align 1, !tbaa !15
  %46 = icmp eq i8 %45, 32
  %47 = add nuw nsw i64 %40, 1
  br i1 %46, label %48, label %155

48:                                               ; preds = %39
  %49 = getelementptr inbounds [200 x i8], [200 x i8]* %2, i64 0, i64 %47
  %50 = load i8, i8* %49, align 1, !tbaa !15
  %51 = icmp eq i8 %50, 32
  br i1 %51, label %52, label %155

52:                                               ; preds = %48
  %53 = add nsw i32 %41, 1
  %54 = sub nsw i32 %31, %53
  %55 = sext i32 %54 to i64
  %56 = icmp sgt i64 %40, %55
  br i1 %56, label %155, label %57

57:                                               ; preds = %52
  %58 = add i64 %43, %55
  %59 = icmp ult i64 %58, 8
  br i1 %59, label %146, label %60

60:                                               ; preds = %57
  %61 = icmp ult i64 %58, 32
  br i1 %61, label %124, label %62

62:                                               ; preds = %60
  %63 = and i64 %58, -32
  %64 = add i64 %63, -32
  %65 = lshr exact i64 %64, 5
  %66 = add nuw nsw i64 %65, 1
  %67 = and i64 %66, 1
  %68 = icmp eq i64 %64, 0
  br i1 %68, label %102, label %69

69:                                               ; preds = %62
  %70 = and i64 %66, 1152921504606846974
  br label %71

71:                                               ; preds = %71, %69
  %72 = phi i64 [ 0, %69 ], [ %99, %71 ]
  %73 = phi i64 [ %70, %69 ], [ %100, %71 ]
  %74 = add i64 %40, %72
  %75 = add nuw nsw i64 %74, 1
  %76 = getelementptr inbounds [200 x i8], [200 x i8]* %2, i64 0, i64 %75
  %77 = bitcast i8* %76 to <16 x i8>*
  %78 = load <16 x i8>, <16 x i8>* %77, align 1, !tbaa !15
  %79 = getelementptr inbounds i8, i8* %76, i64 16
  %80 = bitcast i8* %79 to <16 x i8>*
  %81 = load <16 x i8>, <16 x i8>* %80, align 1, !tbaa !15
  %82 = getelementptr inbounds [200 x i8], [200 x i8]* %2, i64 0, i64 %74
  %83 = bitcast i8* %82 to <16 x i8>*
  store <16 x i8> %78, <16 x i8>* %83, align 1, !tbaa !15
  %84 = getelementptr inbounds i8, i8* %82, i64 16
  %85 = bitcast i8* %84 to <16 x i8>*
  store <16 x i8> %81, <16 x i8>* %85, align 1, !tbaa !15
  %86 = or i64 %72, 32
  %87 = add i64 %40, %86
  %88 = add nuw nsw i64 %87, 1
  %89 = getelementptr inbounds [200 x i8], [200 x i8]* %2, i64 0, i64 %88
  %90 = bitcast i8* %89 to <16 x i8>*
  %91 = load <16 x i8>, <16 x i8>* %90, align 1, !tbaa !15
  %92 = getelementptr inbounds i8, i8* %89, i64 16
  %93 = bitcast i8* %92 to <16 x i8>*
  %94 = load <16 x i8>, <16 x i8>* %93, align 1, !tbaa !15
  %95 = getelementptr inbounds [200 x i8], [200 x i8]* %2, i64 0, i64 %87
  %96 = bitcast i8* %95 to <16 x i8>*
  store <16 x i8> %91, <16 x i8>* %96, align 1, !tbaa !15
  %97 = getelementptr inbounds i8, i8* %95, i64 16
  %98 = bitcast i8* %97 to <16 x i8>*
  store <16 x i8> %94, <16 x i8>* %98, align 1, !tbaa !15
  %99 = add nuw i64 %72, 64
  %100 = add i64 %73, -2
  %101 = icmp eq i64 %100, 0
  br i1 %101, label %102, label %71, !llvm.loop !16

102:                                              ; preds = %71, %62
  %103 = phi i64 [ 0, %62 ], [ %99, %71 ]
  %104 = icmp eq i64 %67, 0
  br i1 %104, label %118, label %105

105:                                              ; preds = %102
  %106 = add i64 %40, %103
  %107 = add nuw nsw i64 %106, 1
  %108 = getelementptr inbounds [200 x i8], [200 x i8]* %2, i64 0, i64 %107
  %109 = bitcast i8* %108 to <16 x i8>*
  %110 = load <16 x i8>, <16 x i8>* %109, align 1, !tbaa !15
  %111 = getelementptr inbounds i8, i8* %108, i64 16
  %112 = bitcast i8* %111 to <16 x i8>*
  %113 = load <16 x i8>, <16 x i8>* %112, align 1, !tbaa !15
  %114 = getelementptr inbounds [200 x i8], [200 x i8]* %2, i64 0, i64 %106
  %115 = bitcast i8* %114 to <16 x i8>*
  store <16 x i8> %110, <16 x i8>* %115, align 1, !tbaa !15
  %116 = getelementptr inbounds i8, i8* %114, i64 16
  %117 = bitcast i8* %116 to <16 x i8>*
  store <16 x i8> %113, <16 x i8>* %117, align 1, !tbaa !15
  br label %118

118:                                              ; preds = %102, %105
  %119 = icmp eq i64 %58, %63
  br i1 %119, label %155, label %120

120:                                              ; preds = %118
  %121 = add i64 %40, %63
  %122 = and i64 %58, 24
  %123 = icmp eq i64 %122, 0
  br i1 %123, label %146, label %124

124:                                              ; preds = %60, %120
  %125 = phi i64 [ %63, %120 ], [ 0, %60 ]
  %126 = add i32 %41, 1
  %127 = sext i32 %126 to i64
  %128 = sub nsw i64 %36, %127
  %129 = call i64 @llvm.smax.i64(i64 %40, i64 %128)
  %130 = add i64 %129, %42
  %131 = and i64 %130, -8
  %132 = add i64 %40, %131
  br label %133

133:                                              ; preds = %133, %124
  %134 = phi i64 [ %125, %124 ], [ %142, %133 ]
  %135 = add i64 %40, %134
  %136 = add nuw nsw i64 %135, 1
  %137 = getelementptr inbounds [200 x i8], [200 x i8]* %2, i64 0, i64 %136
  %138 = bitcast i8* %137 to <8 x i8>*
  %139 = load <8 x i8>, <8 x i8>* %138, align 1, !tbaa !15
  %140 = getelementptr inbounds [200 x i8], [200 x i8]* %2, i64 0, i64 %135
  %141 = bitcast i8* %140 to <8 x i8>*
  store <8 x i8> %139, <8 x i8>* %141, align 1, !tbaa !15
  %142 = add nuw i64 %134, 8
  %143 = icmp eq i64 %142, %131
  br i1 %143, label %144, label %133, !llvm.loop !19

144:                                              ; preds = %133
  %145 = icmp eq i64 %130, %131
  br i1 %145, label %155, label %146

146:                                              ; preds = %57, %120, %144
  %147 = phi i64 [ %40, %57 ], [ %121, %120 ], [ %132, %144 ]
  br label %148

148:                                              ; preds = %146, %148
  %149 = phi i64 [ %150, %148 ], [ %147, %146 ]
  %150 = add nuw nsw i64 %149, 1
  %151 = getelementptr inbounds [200 x i8], [200 x i8]* %2, i64 0, i64 %150
  %152 = load i8, i8* %151, align 1, !tbaa !15
  %153 = getelementptr inbounds [200 x i8], [200 x i8]* %2, i64 0, i64 %149
  store i8 %152, i8* %153, align 1, !tbaa !15
  %154 = icmp slt i64 %149, %55
  br i1 %154, label %148, label %155, !llvm.loop !20

155:                                              ; preds = %148, %118, %144, %39, %52, %48
  %156 = phi i32 [ %53, %52 ], [ %41, %48 ], [ %41, %39 ], [ %53, %144 ], [ %53, %118 ], [ %53, %148 ]
  %157 = icmp eq i64 %47, %34
  br i1 %157, label %158, label %39, !llvm.loop !22

158:                                              ; preds = %155
  %159 = add nuw nsw i32 %38, 1
  %160 = icmp eq i32 %159, %31
  br i1 %160, label %161, label %37, !llvm.loop !23

161:                                              ; preds = %158, %27
  %162 = call i64 @strlen(i8* noundef nonnull %3) #11
  %163 = trunc i64 %162 to i32
  %164 = icmp sgt i32 %163, 0
  br i1 %164, label %165, label %174

165:                                              ; preds = %161
  %166 = and i64 %162, 4294967295
  br label %167

167:                                              ; preds = %165, %167
  %168 = phi i64 [ 0, %165 ], [ %172, %167 ]
  %169 = getelementptr inbounds [200 x i8], [200 x i8]* %2, i64 0, i64 %168
  %170 = load i8, i8* %169, align 1, !tbaa !15
  call void @llvm.lifetime.start.p0i8(i64 1, i8* nonnull %1)
  store i8 %170, i8* %1, align 1, !tbaa !15
  %171 = call nonnull align 8 dereferenceable(8) %"class.std::basic_ostream"* @_ZSt16__ostream_insertIcSt11char_traitsIcEERSt13basic_ostreamIT_T0_ES6_PKS3_l(%"class.std::basic_ostream"* nonnull align 8 dereferenceable(8) @_ZSt4cout, i8* nonnull %1, i64 1)
  call void @llvm.lifetime.end.p0i8(i64 1, i8* nonnull %1)
  %172 = add nuw nsw i64 %168, 1
  %173 = icmp eq i64 %172, %166
  br i1 %173, label %174, label %167, !llvm.loop !24

174:                                              ; preds = %167, %161
  call void @llvm.lifetime.end.p0i8(i64 200, i8* nonnull %3) #9
  ret i32 0
}

; Function Attrs: argmemonly mustprogress nofree nosync nounwind willreturn
declare void @llvm.lifetime.start.p0i8(i64 immarg, i8* nocapture) #4

; Function Attrs: argmemonly mustprogress nofree nounwind readonly willreturn
declare i64 @strlen(i8* nocapture) local_unnamed_addr #5

; Function Attrs: argmemonly mustprogress nofree nosync nounwind willreturn
declare void @llvm.lifetime.end.p0i8(i64 immarg, i8* nocapture) #4

declare nonnull align 8 dereferenceable(16) %"class.std::basic_istream"* @_ZNSi7getlineEPclc(%"class.std::basic_istream"* nonnull align 8 dereferenceable(16), i8*, i64, i8 signext) local_unnamed_addr #0

; Function Attrs: noreturn
declare void @_ZSt16__throw_bad_castv() local_unnamed_addr #6

declare void @_ZNKSt5ctypeIcE13_M_widen_initEv(%"class.std::ctype"* nonnull align 8 dereferenceable(570)) local_unnamed_addr #0

declare nonnull align 8 dereferenceable(8) %"class.std::basic_ostream"* @_ZSt16__ostream_insertIcSt11char_traitsIcEERSt13basic_ostreamIT_T0_ES6_PKS3_l(%"class.std::basic_ostream"* nonnull align 8 dereferenceable(8), i8*, i64) local_unnamed_addr #0

; Function Attrs: sspstrong uwtable
define internal void @_GLOBAL__sub_I_518.cpp() #7 section ".text.startup" {
  tail call void @_ZNSt8ios_base4InitC1Ev(%"class.std::ios_base::Init"* nonnull align 1 dereferenceable(1) @_ZStL8__ioinit)
  %1 = tail call i32 @__cxa_atexit(void (i8*)* bitcast (void (%"class.std::ios_base::Init"*)* @_ZNSt8ios_base4InitD1Ev to void (i8*)*), i8* getelementptr inbounds (%"class.std::ios_base::Init", %"class.std::ios_base::Init"* @_ZStL8__ioinit, i64 0, i32 0), i8* nonnull @__dso_handle) #9
  ret void
}

; Function Attrs: nofree nosync nounwind readnone speculatable willreturn
declare i64 @llvm.smax.i64(i64, i64) #8


!llvm.module.flags = !{!0, !1, !2, !3}
!llvm.ident = !{!4}

!0 = !{i32 1, !"wchar_size", i32 4}
!1 = !{i32 7, !"PIC Level", i32 2}
!2 = !{i32 7, !"PIE Level", i32 2}
!3 = !{i32 7, !"uwtable", i32 1}
!4 = !{!"clang version 13.0.0"}
!5 = !{!6, !6, i64 0}
!6 = !{!"vtable pointer", !7, i64 0}
!7 = !{!"Simple C++ TBAA"}
!8 = !{!9, !10, i64 240}
!9 = !{!"_ZTSSt9basic_iosIcSt11char_traitsIcEE", !10, i64 216, !11, i64 224, !12, i64 225, !10, i64 232, !10, i64 240, !10, i64 248, !10, i64 256}
!10 = !{!"any pointer", !11, i64 0}
!11 = !{!"omnipotent char", !7, i64 0}
!12 = !{!"bool", !11, i64 0}
!13 = !{!14, !11, i64 56}
!14 = !{!"_ZTSSt5ctypeIcE", !10, i64 16, !12, i64 24, !10, i64 32, !10, i64 40, !10, i64 48, !11, i64 56, !11, i64 57, !11, i64 313, !11, i64 569}
!15 = !{!11, !11, i64 0}
!16 = distinct !{!16, !17, !18}
!17 = !{!"llvm.loop.mustprogress"}
!18 = !{!"llvm.loop.isvectorized", i32 1}
!19 = distinct !{!19, !17, !18}
!20 = distinct !{!20, !17, !21, !18}
!21 = !{!"llvm.loop.unroll.runtime.disable"}
!22 = distinct !{!22, !17}
!23 = distinct !{!23, !17}
!24 = distinct !{!24, !17}
